; Function Attrs: mustprogress nounwind uwtable
define internal fastcc void @"_ZZN9grpc_core12_GLOBAL__N_15RlsLb10RlsRequest17OnRlsCallCompleteEPvN4absl12lts_202308026StatusEEN3$_0D2Ev"(i64 %this.8.val) unnamed_addr #11 align 2 personality ptr @__gxx_personality_v0 {
entry:
  %and.i.i.i = and i64 %this.8.val, 1
  %cmp.i.i.i = icmp eq i64 %and.i.i.i, 0
  br i1 %cmp.i.i.i, label %_ZN4absl12lts_202308026StatusD2Ev.exit, label %if.then.i.i

if.then.i.i:                                      ; preds = %entry
  invoke void @_ZN4absl12lts_202308026Status15UnrefNonInlinedEm(i64 noundef %this.8.val)
          to label %_ZN4absl12lts_202308026StatusD2Ev.exit unwind label %terminate.lpad.i

terminate.lpad.i:                                 ; preds = %if.then.i.i
  %0 = landingpad { ptr, i32 }
          catch ptr null
  %1 = extractvalue { ptr, i32 } %0, 0
  tail call void @__clang_call_terminate(ptr %1) #34
  unreachable

_ZN4absl12lts_202308026StatusD2Ev.exit:           ; preds = %entry, %if.then.i.i
  ret void
}